///////////////////////////////////////////////////////////////////////////////
//
// IAR ANSI C/C++ Compiler V7.40.2.8542/W32 for ARM       01/May/2018  16:13:26
// Copyright 1999-2015 IAR Systems AB.
//
//    Cpu mode     =  thumb
//    Endian       =  little
//    Source file  =  H:\智能车程序2018\电磁三轮――ZS\5.1\device\C\spi.c
//    Command line =  
//        H:\智能车程序2018\电磁三轮――ZS\5.1\device\C\spi.c -D IAR -D
//        TWR_K60N512 -D _DLIB_FILE_DESCRIPTOR -lCN
//        H:\智能车程序2018\电磁三轮――ZS\5.1\iar\KEA_128_FLASH\List\ -lB
//        H:\智能车程序2018\电磁三轮――ZS\5.1\iar\KEA_128_FLASH\List\ -o
//        H:\智能车程序2018\电磁三轮――ZS\5.1\iar\KEA_128_FLASH\Obj\ --no_cse
//        --no_unroll --no_inline --no_code_motion --no_tbaa --no_clustering
//        --no_scheduling --debug --endian=little --cpu=Cortex-M0+ -e
//        --fpu=None --dlib_config F:\IAR安装包\arm\INC\c\DLib_Config_Normal.h
//        -I H:\智能车程序2018\电磁三轮――ZS\5.1\iar\..\device\H\ -I
//        H:\智能车程序2018\电磁三轮――ZS\5.1\iar\..\user\H\ -I
//        H:\智能车程序2018\电磁三轮――ZS\5.1\iar\..\system\ -I
//        H:\智能车程序2018\电磁三轮――ZS\5.1\iar\..\lib\H\ -I
//        H:\智能车程序2018\电磁三轮――ZS\5.1\iar\..\system\coreSupport\ -On
//    List file    =  
//        H:\智能车程序2018\电磁三轮――ZS\5.1\iar\KEA_128_FLASH\List\spi.s
//
///////////////////////////////////////////////////////////////////////////////

        #define SHT_PROGBITS 0x1

        EXTERN __aeabi_memcpy4
        EXTERN __aeabi_uidiv
        EXTERN abs
        EXTERN bus_clk_khz

        PUBLIC SPIN
        PUBLIC spi_init
        PUBLIC spi_mosi
        PUBLIC spi_mosi_cmd

// H:\智能车程序2018\电磁三轮――ZS\5.1\device\C\spi.c
//    1 /**
//    2   ******************************************************************************
//    3   * COPYRIGHT NOTICE
//    4   * Copyright (c) 2018,华北科技学院
//    5   * All rights reserved.
//    6   *
//    7   * 文件名称：    spi.c
//    8   * 文件标识：
//    9   * 摘    要：
//   10   *
//   11   * 当前版本：     1.0
//   12   * 负    责：     韩志伟
//   13   * 时    间：     2018年1月23日 10:55:52
//   14   ******************************************************************************
//   15   */
//   16 
//   17 #include "spi.h"
//   18 
//   19 

        SECTION `.data`:DATA:REORDER:NOROOT(2)
//   20 SPI_Type* SPIN[2] = SPI_BASES; //定义两个指针数组保存 SPIx 的地址
SPIN:
        DATA
        DC32 40076000H, 40077000H
//   21 
//   22 
//   23 
//   24 #define SPI_TX_WAIT(SPIn)	while( !( SPIN[SPIn]->S & SPI_S_SPTEF_MASK ) )  //等待发送完成
//   25 #define SPI_RX_WAIT(SPIn)   while( !( SPIN[SPIn]->S & SPI_S_SPRF_MASK ) )   //等待接收数据
//   26 
//   27 
//   28 //-------------------------------------------------------------------------------------------------------------------
//   29 //  @brief      SPI初始化
//   30 //  @param      spin            选择SPI模块   有spi0 spi1
//   31 //  @param      pcs             选择片选引脚
//   32 //  @param      master          选择主从模式
//   33 //  @param      baud            选择通信速率
//   34 //  @return     				返回真实波特率
//   35 //  @since      v2.0
//   36 //  Sample usage:       		uint32 baud = spi_init(spi0,USE_PCS,MASTER,1*1000*1000);              //初始化SPI,主机模式, 波特率为1M ,返回真实波特率到baud变量
//   37 //-------------------------------------------------------------------------------------------------------------------

        SECTION `.text`:CODE:NOROOT(1)
        THUMB
//   38 uint32 spi_init(SPIn_e spin, SPI_PCSn_e pcs, SPI_CFG master,uint32 baud)
//   39 {
spi_init:
        PUSH     {R0-R7,LR}
        SUB      SP,SP,#+52
//   40     uint8 i,j;
//   41     uint8 sppr,spr;
//   42     uint32 Scaler[] = {2,4,8,16,32,64,128,256,512};
        ADD      R0,SP,#+12
        LDR      R1,??DataTable1
        MOVS     R2,#+36
        BL       __aeabi_memcpy4
//   43     uint8  Prescaler[] = {1,2,3,4,5,6,7,8};
        ADD      R0,SP,#+4
        LDR      R1,??DataTable1_1
        LDM      R1!,{R2,R3}
        STM      R0!,{R2,R3}
        SUBS     R1,R1,#+8
        SUBS     R0,R0,#+8
//   44     uint32 min_diff, diff;
//   45 
//   46     if(spi0 == spin)
        ADD      R0,SP,#+52
        LDRB     R0,[R0, #+0]
        CMP      R0,#+0
        BNE      ??spi_init_0
//   47     {
//   48         SIM->SCGC |= SIM_SCGC_SPI0_MASK;    //开启时钟
        LDR      R0,??DataTable1_2  ;; 0x40048014
        LDR      R0,[R0, #+0]
        MOVS     R1,#+128
        LSLS     R1,R1,#+11       ;; #+262144
        ORRS     R1,R1,R0
        LDR      R0,??DataTable1_2  ;; 0x40048014
        STR      R1,[R0, #+0]
//   49         //引脚复用
//   50         if(B2 == SPI0_SCK_PIN)
//   51         {
//   52             SIM->PINSEL &= ~(uint32)SIM_PINSEL_SPI0PS_MASK;
        LDR      R0,??DataTable1_3  ;; 0x4004800c
        LDR      R0,[R0, #+0]
        MOVS     R1,#+64
        BICS     R0,R0,R1
        LDR      R1,??DataTable1_3  ;; 0x4004800c
        STR      R0,[R1, #+0]
        B        ??spi_init_1
//   53         }
//   54         else
//   55         {
//   56             SIM->PINSEL |= SIM_PINSEL_SPI0PS_MASK;
//   57         }
//   58     }
//   59     else
//   60     {
//   61         SIM->SCGC |= SIM_SCGC_SPI1_MASK;    //开启时钟
??spi_init_0:
        LDR      R0,??DataTable1_2  ;; 0x40048014
        LDR      R0,[R0, #+0]
        MOVS     R1,#+128
        LSLS     R1,R1,#+12       ;; #+524288
        ORRS     R1,R1,R0
        LDR      R0,??DataTable1_2  ;; 0x40048014
        STR      R1,[R0, #+0]
//   62         //引脚复用
//   63         if(D0 == SPI1_SCK_PIN)
//   64         {
//   65             SIM->PINSEL1 &= ~(uint32)SIM_PINSEL1_SPI1PS_MASK;
//   66         }
//   67         else
//   68         {
//   69             SIM->PINSEL1 |= SIM_PINSEL1_SPI1PS_MASK;
        LDR      R0,??DataTable1_4  ;; 0x40048010
        LDR      R0,[R0, #+0]
        MOVS     R1,#+128
        LSLS     R1,R1,#+4        ;; #+2048
        ORRS     R1,R1,R0
        LDR      R0,??DataTable1_4  ;; 0x40048010
        STR      R1,[R0, #+0]
//   70         }
//   71     }
//   72     //根据主从机模式设置工作模式 最大波特率为总线时钟的二分之一
//   73     if(master == MASTER)
??spi_init_1:
        ADD      R0,SP,#+60
        LDRB     R0,[R0, #+0]
        CMP      R0,#+0
        BNE      ??spi_init_2
//   74     {
//   75         min_diff = ~0;
        MOVS     R0,#+0
        MVNS     R0,R0            ;; #-1
        MOVS     R6,R0
//   76         for(i=0; i<9; i++)
        MOVS     R0,#+0
        MOVS     R5,R0
??spi_init_3:
        UXTB     R5,R5
        CMP      R5,#+9
        BGE      ??spi_init_4
//   77         {
//   78             for(j=0; j<8; j++)
        MOVS     R0,#+0
        MOVS     R4,R0
??spi_init_5:
        UXTB     R4,R4
        CMP      R4,#+8
        BGE      ??spi_init_6
//   79             {
//   80                 diff = abs(bus_clk_khz*1000/(Prescaler[j]*Scaler[i]) - baud);
        LDR      R0,??DataTable1_5
        LDR      R0,[R0, #+0]
        MOVS     R1,#+250
        LSLS     R1,R1,#+2        ;; #+1000
        MULS     R0,R1,R0
        ADD      R1,SP,#+4
        UXTB     R4,R4
        LDRB     R1,[R1, R4]
        ADD      R2,SP,#+12
        UXTB     R5,R5
        MOVS     R3,#+4
        MULS     R3,R5,R3
        LDR      R2,[R2, R3]
        MULS     R1,R2,R1
        BL       __aeabi_uidiv
        LDR      R1,[SP, #+64]
        SUBS     R0,R0,R1
        BL       abs
        MOVS     R7,R0
//   81                 if(min_diff > diff)
        CMP      R7,R6
        BCS      ??spi_init_7
//   82                 {
//   83                     //更新最佳参数
//   84                     sppr = j;
        MOV      R0,SP
        STRB     R4,[R0, #+1]
//   85                     spr = i;
        MOV      R0,SP
        STRB     R5,[R0, #+0]
//   86                     min_diff = diff;
        MOVS     R6,R7
//   87 
//   88                     if(min_diff == 0)	break;//刚好匹配
        CMP      R6,#+0
        BEQ      ??spi_init_6
//   89                 }
//   90             }
??spi_init_7:
        ADDS     R4,R4,#+1
        B        ??spi_init_5
//   91         }
??spi_init_6:
        ADDS     R5,R5,#+1
        B        ??spi_init_3
//   92 
//   93         SPIN[spin]->C1 = (0
//   94                           | (pcs << SPI_C1_SSOE_SHIFT)          //配合C2_MODFEN位选择片选引脚的功能
//   95                           | SPI_C1_SPE_MASK                     //SPI 系统使能
//   96                           | SPI_C1_MSTR_MASK                    //SPI 模块配置为SPI 主机
//   97                           //| SPI_C1_SPIE_MASK                  //SPRF 或MODF 为1 时请求硬件中断
//   98                           //| SPI_C1_SPTIE_MASK                 //SPTEF 为1 时，请求硬件中断。
//   99                           | SPI_C1_CPOL_MASK                  //0：高电平有效SPI 时钟（空闲时为低电平） 1：低电平有效SPI 时钟（空闲时为高电平）
//  100                           | SPI_C1_CPHA_MASK                            //0:SPSCK 上的第一个边沿出现在数据传输的第一个周期的中间 1:SPSCK 上的第一个边沿出现在数据传输的第一个周期的开始
//  101                           //| SPI_C1_LSBFE_MASK                 //1:SPI 串行数据传输从最低有效位开始
//  102                           );
??spi_init_4:
        ADD      R0,SP,#+56
        LDRB     R0,[R0, #+0]
        LSLS     R1,R0,#+1
        MOVS     R0,#+92
        ORRS     R0,R0,R1
        LDR      R1,??DataTable1_6
        ADD      R2,SP,#+52
        LDRB     R2,[R2, #+0]
        MOVS     R3,#+4
        MULS     R2,R3,R2
        LDR      R1,[R1, R2]
        STRB     R0,[R1, #+0]
//  103         SPIN[spin]->C2 = pcs << SPI_C2_MODFEN_SHIFT;            //配合C1_SSOE位选择片选引脚的功能
        ADD      R0,SP,#+56
        LDRB     R0,[R0, #+0]
        LSLS     R0,R0,#+4
        LDR      R1,??DataTable1_6
        ADD      R2,SP,#+52
        LDRB     R2,[R2, #+0]
        MOVS     R3,#+4
        MULS     R2,R3,R2
        LDR      R1,[R1, R2]
        STRB     R0,[R1, #+1]
//  104         SPIN[spin]->BR = SPI_BR_SPR(spr) | SPI_BR_SPPR(sppr);   //设置波特率参数
        MOV      R0,SP
        LDRB     R0,[R0, #+0]
        LSLS     R1,R0,#+28       ;; ZeroExtS R1,R0,#+28,#+28
        LSRS     R1,R1,#+28
        MOV      R0,SP
        LDRB     R0,[R0, #+1]
        LSLS     R2,R0,#+4
        MOVS     R0,#+112
        ANDS     R0,R0,R2
        ORRS     R0,R0,R1
        LDR      R1,??DataTable1_6
        ADD      R2,SP,#+52
        LDRB     R2,[R2, #+0]
        MOVS     R3,#+4
        MULS     R2,R3,R2
        LDR      R1,[R1, R2]
        STRB     R0,[R1, #+2]
//  105     }
//  106     else{}
//  107     return (bus_clk_khz*1000/Prescaler[sppr]/Scaler[spr]);      //返回实际波特率
??spi_init_2:
        LDR      R0,??DataTable1_5
        LDR      R0,[R0, #+0]
        MOVS     R1,#+250
        LSLS     R1,R1,#+2        ;; #+1000
        MULS     R0,R1,R0
        ADD      R1,SP,#+4
        MOV      R2,SP
        LDRB     R2,[R2, #+1]
        LDRB     R1,[R1, R2]
        BL       __aeabi_uidiv
        ADD      R1,SP,#+12
        MOV      R2,SP
        LDRB     R2,[R2, #+0]
        MOVS     R3,#+4
        MULS     R2,R3,R2
        LDR      R1,[R1, R2]
        BL       __aeabi_uidiv
        ADD      SP,SP,#+68
        POP      {R4-R7,PC}       ;; return
//  108 }
//  109 
//  110 //-------------------------------------------------------------------------------------------------------------------
//  111 //  @brief      SPI发送接收函数
//  112 //  @param      spin            选择SPI模块   有spi0 spi1
//  113 //  @param      modata          发送的数据缓冲区地址(不需要接收则传 NULL)
//  114 //  @param      midata          发送数据时接收到的数据的存储地址(不需要接收则传 NULL)
//  115 //  @param      len             发送的字节数
//  116 //  @return     void
//  117 //  @since      v2.0
//  118 //  Sample usage:       		spi_mosi(spi0,buf,buf,1);    //发送buff的内容，并接收到buf里，长度为1字节
//  119 //-------------------------------------------------------------------------------------------------------------------

        SECTION `.text`:CODE:NOROOT(1)
        THUMB
//  120 void spi_mosi(SPIn_e spin, SPI_PCSn_e pcs, uint8 *modata, uint8 *midata, uint32 len)
//  121 {
spi_mosi:
        PUSH     {R4-R7,LR}
        LDR      R4,[SP, #+20]
//  122     while(len)
??spi_mosi_0:
        CMP      R4,#+0
        BEQ      ??spi_mosi_1
//  123     {
//  124         SPI_TX_WAIT(spin);
??spi_mosi_2:
        LDR      R5,??DataTable1_6
        UXTB     R0,R0
        MOVS     R6,#+4
        MULS     R6,R0,R6
        LDR      R5,[R5, R6]
        LDRB     R5,[R5, #+3]
        LSLS     R5,R5,#+26
        BPL      ??spi_mosi_2
//  125         SPIN[spin]->D = *modata;
        LDRB     R5,[R2, #+0]
        LDR      R6,??DataTable1_6
        UXTB     R0,R0
        MOVS     R7,#+4
        MULS     R7,R0,R7
        LDR      R6,[R6, R7]
        STRB     R5,[R6, #+5]
//  126         SPI_RX_WAIT(spin);
??spi_mosi_3:
        LDR      R5,??DataTable1_6
        UXTB     R0,R0
        MOVS     R6,#+4
        MULS     R6,R0,R6
        LDR      R5,[R5, R6]
        LDRB     R5,[R5, #+3]
        LSLS     R5,R5,#+24
        BPL      ??spi_mosi_3
//  127         if(midata != NULL)  *midata = SPIN[spin]->D;
        CMP      R3,#+0
        BEQ      ??spi_mosi_4
        LDR      R5,??DataTable1_6
        UXTB     R0,R0
        MOVS     R6,#+4
        MULS     R6,R0,R6
        LDR      R5,[R5, R6]
        LDRB     R5,[R5, #+5]
        STRB     R5,[R3, #+0]
        B        ??spi_mosi_5
//  128         else                SPIN[spin]->D;
??spi_mosi_4:
        LDR      R5,??DataTable1_6
        UXTB     R0,R0
        MOVS     R6,#+4
        MULS     R6,R0,R6
        LDR      R5,[R5, R6]
        LDRB     R5,[R5, #+5]
//  129         len--;
??spi_mosi_5:
        SUBS     R4,R4,#+1
//  130         modata++;
        ADDS     R2,R2,#+1
//  131         if(midata != NULL)  midata++;
        CMP      R3,#+0
        BEQ      ??spi_mosi_0
        ADDS     R3,R3,#+1
        B        ??spi_mosi_0
//  132     }
//  133 }
??spi_mosi_1:
        POP      {R4-R7,PC}       ;; return

        SECTION `.text`:CODE:NOROOT(2)
        SECTION_TYPE SHT_PROGBITS, 0
        DATA
??DataTable1:
        DC32     ?_0

        SECTION `.text`:CODE:NOROOT(2)
        SECTION_TYPE SHT_PROGBITS, 0
        DATA
??DataTable1_1:
        DC32     ?_1

        SECTION `.text`:CODE:NOROOT(2)
        SECTION_TYPE SHT_PROGBITS, 0
        DATA
??DataTable1_2:
        DC32     0x40048014

        SECTION `.text`:CODE:NOROOT(2)
        SECTION_TYPE SHT_PROGBITS, 0
        DATA
??DataTable1_3:
        DC32     0x4004800c

        SECTION `.text`:CODE:NOROOT(2)
        SECTION_TYPE SHT_PROGBITS, 0
        DATA
??DataTable1_4:
        DC32     0x40048010

        SECTION `.text`:CODE:NOROOT(2)
        SECTION_TYPE SHT_PROGBITS, 0
        DATA
??DataTable1_5:
        DC32     bus_clk_khz

        SECTION `.text`:CODE:NOROOT(2)
        SECTION_TYPE SHT_PROGBITS, 0
        DATA
??DataTable1_6:
        DC32     SPIN
//  134 
//  135 //-------------------------------------------------------------------------------------------------------------------
//  136 //  @brief      SPI发送接收函数
//  137 //  @param      spin            选择SPI模块   有spi0 spi1
//  138 //  @param      mocmd           发送的命令缓冲区地址(不需要接收则传 NULL)
//  139 //  @param      micmd           发送命令时接收到的数据的存储地址(不需要接收则传 NULL)
//  140 //  @param      modata          发送的数据缓冲区地址(不需要接收则传 NULL)
//  141 //  @param      midata          发送数据时接收到的数据的存储地址(不需要接收则传 NULL)
//  142 //  @param      cmdlen          发送命令的字节数
//  143 //  @param      len             发送数据的字节数
//  144 //  @return     void
//  145 //  @since      v2.0
//  146 //  Sample usage:       		spi_mosi_cmd(spi0,cmd,NULL,buff,buff,1,2);    //发送cmd/buff的内容，不接收cmd发送时的数据，接收buff发送时的数据到buff里，长度分别为1、2字节
//  147 //-------------------------------------------------------------------------------------------------------------------

        SECTION `.text`:CODE:NOROOT(1)
        THUMB
//  148 void spi_mosi_cmd(SPIn_e spin, SPI_PCSn_e pcs, uint8 *mocmd , uint8 *micmd , uint8 *modata , uint8 *midata, uint32 cmdlen , uint32 len)
//  149 {
spi_mosi_cmd:
        PUSH     {R1-R7,LR}
        SUB      SP,SP,#+8
        MOVS     R4,R0
        LDR      R7,[SP, #+44]
        LDR      R6,[SP, #+48]
        LDR      R5,[SP, #+52]
//  150     spi_mosi(spin,pcs,mocmd,micmd,cmdlen);
        STR      R6,[SP, #+0]
        LDR      R3,[SP, #+16]
        LDR      R2,[SP, #+12]
        MOV      R0,SP
        LDRB     R1,[R0, #+8]
        MOVS     R0,R4
        UXTB     R0,R0
        BL       spi_mosi
//  151     spi_mosi(spin,pcs,modata,midata,len);
        STR      R5,[SP, #+0]
        MOVS     R3,R7
        LDR      R2,[SP, #+40]
        MOV      R0,SP
        LDRB     R1,[R0, #+8]
        MOVS     R0,R4
        UXTB     R0,R0
        BL       spi_mosi
//  152 }
        ADD      SP,SP,#+20
        POP      {R4-R7,PC}       ;; return

        SECTION `.iar_vfe_header`:DATA:NOALLOC:NOROOT(2)
        SECTION_TYPE SHT_PROGBITS, 0
        DATA
        DC32 0

        SECTION __DLIB_PERTHREAD:DATA:REORDER:NOROOT(0)
        SECTION_TYPE SHT_PROGBITS, 0

        SECTION __DLIB_PERTHREAD_init:DATA:REORDER:NOROOT(0)
        SECTION_TYPE SHT_PROGBITS, 0

        SECTION `.rodata`:CONST:REORDER:NOROOT(2)
?_0:
        DATA
        DC32 2, 4, 8, 16, 32, 64, 128, 256, 512

        SECTION `.rodata`:CONST:REORDER:NOROOT(2)
?_1:
        DATA
        DC8 1, 2, 3, 4, 5, 6, 7, 8

        END
//  153 
//  154 
// 
//   8 bytes in section .data
//  44 bytes in section .rodata
// 492 bytes in section .text
// 
// 492 bytes of CODE  memory
//  44 bytes of CONST memory
//   8 bytes of DATA  memory
//
//Errors: none
//Warnings: none
